target datalayout = "e-m:e-p270:32:32-p271:32:32-p272:64:64-i64:64-i128:128-f80:128-n8:16:32:64-S128"
target triple = "x86_64-unknown-linux-gnu"

%"class.proxygen::GenericFilter" = type { %"class.proxygen::HTTPCodec", %"class.proxygen::HTTPCodec::Callback", i8, i8, ptr, ptr, ptr, ptr, ptr, ptr }
%"class.proxygen::HTTPCodec" = type { ptr }
%"class.proxygen::HTTPCodec::Callback" = type { ptr }

; Function Attrs: mustprogress uwtable
define noundef zeroext i1 @_ZN8proxygen26PassThroughHTTPCodecFilter23onNativeProtocolUpgradeEmNS_13CodecProtocolERKNSt7__cxx1112basic_stringIcSt11char_traitsIcESaIcEEERNS_11HTTPMessageE(ptr noundef nonnull align 8 dereferenceable(72) %this, i64 noundef %streamID, i8 noundef zeroext %protocol, ptr noundef nonnull align 8 dereferenceable(32) %protocolString, ptr noundef nonnull align 8 dereferenceable(616) %msg) unnamed_addr #4 align 2 {
entry:
  %this.addr = alloca ptr, align 8
  %streamID.addr = alloca i64, align 8
  %protocol.addr = alloca i8, align 1
  %protocolString.addr = alloca ptr, align 8
  %msg.addr = alloca ptr, align 8
  store ptr %this, ptr %this.addr, align 8
  store i64 %streamID, ptr %streamID.addr, align 8
  store i8 %protocol, ptr %protocol.addr, align 1
  store ptr %protocolString, ptr %protocolString.addr, align 8
  store ptr %msg, ptr %msg.addr, align 8
  %this1 = load ptr, ptr %this.addr, align 8
  %callback_ = getelementptr inbounds %"class.proxygen::GenericFilter", ptr %this1, i32 0, i32 5
  %0 = load ptr, ptr %callback_, align 8
  %1 = load i64, ptr %streamID.addr, align 8
  %2 = load i8, ptr %protocol.addr, align 1
  %3 = load ptr, ptr %protocolString.addr, align 8
  %4 = load ptr, ptr %msg.addr, align 8
  %vtable = load ptr, ptr %0, align 8
  %vfn = getelementptr inbounds ptr, ptr %vtable, i64 22
  %5 = load ptr, ptr %vfn, align 8
  %call = call noundef zeroext i1 %5(ptr noundef nonnull align 8 dereferenceable(8) %0, i64 noundef %1, i8 noundef zeroext %2, ptr noundef nonnull align 8 dereferenceable(32) %3, ptr noundef nonnull align 8 dereferenceable(616) %4)
  ret i1 %call
}