; Function Attrs: mustprogress uwtable
define noundef zeroext i1 @_ZN8proxygen26PassThroughHTTPCodecFilter23onNativeProtocolUpgradeEmNS_13CodecProtocolERKNSt7__cxx1112basic_stringIcSt11char_traitsIcESaIcEEERNS_11HTTPMessageE(ptr nocapture noundef nonnull readonly align 8 dereferenceable(72) %this, i64 noundef %streamID, i8 noundef zeroext %protocol, ptr noundef nonnull align 8 dereferenceable(32) %protocolString, ptr noundef nonnull align 8 dereferenceable(616) %msg) unnamed_addr #3 align 2 {
entry:
  %callback_ = getelementptr inbounds i8, ptr %this, i64 32
  %0 = load ptr, ptr %callback_, align 8
  %vtable = load ptr, ptr %0, align 8
  %vfn = getelementptr inbounds i8, ptr %vtable, i64 176
  %1 = load ptr, ptr %vfn, align 8
  %call = tail call noundef zeroext i1 %1(ptr noundef nonnull align 8 dereferenceable(8) %0, i64 noundef %streamID, i8 noundef zeroext %protocol, ptr noundef nonnull align 8 dereferenceable(32) %protocolString, ptr noundef nonnull align 8 dereferenceable(616) %msg)
  ret i1 %call
}